; Function Attrs: nofree norecurse nosync nounwind memory(argmem: read) uwtable
define i32 @Kit_TruthSupport(ptr noundef readonly captures(none) %0, i32 noundef %1) local_unnamed_addr #3 {
  %3 = icmp sgt i32 %1, 0
  br i1 %3, label %.lr.ph, label %._crit_edge

.lr.ph:                                           ; preds = %2, %.lr.ph
  %.011 = phi i32 [ %.1, %.lr.ph ], [ 0, %2 ]
  %.0810 = phi i32 [ %7, %.lr.ph ], [ 0, %2 ]
  %4 = tail call i32 @Kit_TruthVarInSupport(ptr noundef %0, i32 noundef %1, i32 noundef %.0810)
  %.not = icmp eq i32 %4, 0
  %5 = shl nuw i32 1, %.0810
  %6 = select i1 %.not, i32 0, i32 %5
  %.1 = or i32 %6, %.011
  %7 = add nuw nsw i32 %.0810, 1
  %exitcond.not = icmp eq i32 %7, %1
  br i1 %exitcond.not, label %._crit_edge, label %.lr.ph, !llvm.loop !40

._crit_edge:                                      ; preds = %.lr.ph, %2
  %.0.lcssa = phi i32 [ 0, %2 ], [ %.1, %.lr.ph ]
  ret i32 %.0.lcssa
}